target datalayout = "e-m:e-p270:32:32-p271:32:32-p272:64:64-i64:64-i128:128-f80:128-n8:16:32:64-S128"
target triple = "x86_64-pc-linux-gnu"

%struct.BrotliEncoderStateStruct = type { %struct.BrotliEncoderParams, %struct.MemoryManager, i64, %struct.RingBuffer, i64, ptr, i64, i64, i64, i64, i64, [16 x i32], [4 x i32], i16, i8, i8, i8, i8, i64, ptr, %struct.Hasher, [1024 x i32], ptr, i64, ptr, ptr, ptr, ptr, i64, ptr, i64, i64, %union.anon.0, i32, i32, i32, i32 }
%struct.BrotliEncoderParams = type { i32, i32, i32, i32, i64, i64, i32, i32, %struct.BrotliHasherParams, %struct.BrotliDistanceParams, %struct.SharedEncoderDictionary }
%struct.BrotliHasherParams = type { i32, i32, i32, i32 }
%struct.BrotliDistanceParams = type { i32, i32, i32, i32, i64 }
%struct.SharedEncoderDictionary = type { i32, %struct.CompoundDictionary, %struct.ContextualEncoderDictionary, i32 }
%struct.CompoundDictionary = type { i64, i64, [16 x ptr], [16 x ptr], [16 x i64], i64, [16 x ptr] }
%struct.ContextualEncoderDictionary = type { i32, i8, [64 x i8], [64 x ptr], i64, %struct.BrotliEncoderDictionary, ptr }
%struct.BrotliEncoderDictionary = type { ptr, i32, i32, i64, ptr, ptr, ptr, ptr, %struct.BrotliTrie, i32, ptr, ptr, ptr, i64, ptr, i64, ptr, ptr }
%struct.BrotliTrie = type { ptr, i64, i64, %struct.BrotliTrieNode }
%struct.BrotliTrieNode = type { i8, i8, i8, i32, i32 }
%struct.MemoryManager = type { ptr, ptr, ptr }
%struct.RingBuffer = type { i32, i32, i32, i32, i32, i32, ptr, ptr }
%struct.Hasher = type { %struct.HasherCommon, %union.anon }
%struct.HasherCommon = type { [4 x ptr], i32, i64, i64, %struct.BrotliHasherParams, i32 }
%union.anon = type { %struct.H42 }
%struct.H42 = type { [512 x i16], i64, [2 x ptr], ptr }
%union.anon.0 = type { [2 x i64] }

; Function Attrs: nounwind uwtable
define i32 @BrotliEncoderSetParameter(ptr noundef %0, i32 noundef %1, i32 noundef %2) #0 {
  %4 = alloca i32, align 4
  %5 = alloca ptr, align 8
  %6 = alloca i32, align 4
  %7 = alloca i32, align 4
  store ptr %0, ptr %5, align 8, !tbaa !3
  store i32 %1, ptr %6, align 4, !tbaa !8
  store i32 %2, ptr %7, align 4, !tbaa !8
  %8 = load ptr, ptr %5, align 8, !tbaa !3
  %9 = getelementptr inbounds nuw %struct.BrotliEncoderStateStruct, ptr %8, i32 0, i32 36
  %10 = load i32, ptr %9, align 4, !tbaa !10
  %11 = icmp ne i32 %10, 0
  br i1 %11, label %12, label %13

12:                                               ; preds = %3
  store i32 0, ptr %4, align 4
  br label %93

13:                                               ; preds = %3
  %14 = load i32, ptr %6, align 4, !tbaa !8
  switch i32 %14, label %92 [
    i32 0, label %15
    i32 1, label %20
    i32 2, label %25
    i32 3, label %30
    i32 4, label %35
    i32 5, label %53
    i32 6, label %59
    i32 7, label %70
    i32 8, label %76
    i32 9, label %82
  ]

15:                                               ; preds = %13
  %16 = load i32, ptr %7, align 4, !tbaa !8
  %17 = load ptr, ptr %5, align 8, !tbaa !3
  %18 = getelementptr inbounds nuw %struct.BrotliEncoderStateStruct, ptr %17, i32 0, i32 0
  %19 = getelementptr inbounds nuw %struct.BrotliEncoderParams, ptr %18, i32 0, i32 0
  store i32 %16, ptr %19, align 8, !tbaa !38
  store i32 1, ptr %4, align 4
  br label %93

20:                                               ; preds = %13
  %21 = load i32, ptr %7, align 4, !tbaa !8
  %22 = load ptr, ptr %5, align 8, !tbaa !3
  %23 = getelementptr inbounds nuw %struct.BrotliEncoderStateStruct, ptr %22, i32 0, i32 0
  %24 = getelementptr inbounds nuw %struct.BrotliEncoderParams, ptr %23, i32 0, i32 1
  store i32 %21, ptr %24, align 4, !tbaa !39
  store i32 1, ptr %4, align 4
  br label %93

25:                                               ; preds = %13
  %26 = load i32, ptr %7, align 4, !tbaa !8
  %27 = load ptr, ptr %5, align 8, !tbaa !3
  %28 = getelementptr inbounds nuw %struct.BrotliEncoderStateStruct, ptr %27, i32 0, i32 0
  %29 = getelementptr inbounds nuw %struct.BrotliEncoderParams, ptr %28, i32 0, i32 2
  store i32 %26, ptr %29, align 8, !tbaa !40
  store i32 1, ptr %4, align 4
  br label %93

30:                                               ; preds = %13
  %31 = load i32, ptr %7, align 4, !tbaa !8
  %32 = load ptr, ptr %5, align 8, !tbaa !3
  %33 = getelementptr inbounds nuw %struct.BrotliEncoderStateStruct, ptr %32, i32 0, i32 0
  %34 = getelementptr inbounds nuw %struct.BrotliEncoderParams, ptr %33, i32 0, i32 3
  store i32 %31, ptr %34, align 4, !tbaa !41
  store i32 1, ptr %4, align 4
  br label %93

35:                                               ; preds = %13
  %36 = load i32, ptr %7, align 4, !tbaa !8
  %37 = icmp ne i32 %36, 0
  br i1 %37, label %38, label %42

38:                                               ; preds = %35
  %39 = load i32, ptr %7, align 4, !tbaa !8
  %40 = icmp ne i32 %39, 1
  br i1 %40, label %41, label %42

41:                                               ; preds = %38
  store i32 0, ptr %4, align 4
  br label %93

42:                                               ; preds = %38, %35
  %43 = load i32, ptr %7, align 4, !tbaa !8
  %44 = icmp ne i32 %43, 0
  %45 = xor i1 %44, true
  %46 = xor i1 %45, true
  %47 = xor i1 %46, true
  %48 = xor i1 %47, true
  %49 = select i1 %48, i32 1, i32 0
  %50 = load ptr, ptr %5, align 8, !tbaa !3
  %51 = getelementptr inbounds nuw %struct.BrotliEncoderStateStruct, ptr %50, i32 0, i32 0
  %52 = getelementptr inbounds nuw %struct.BrotliEncoderParams, ptr %51, i32 0, i32 6
  store i32 %49, ptr %52, align 8, !tbaa !42
  store i32 1, ptr %4, align 4
  br label %93

53:                                               ; preds = %13
  %54 = load i32, ptr %7, align 4, !tbaa !8
  %55 = zext i32 %54 to i64
  %56 = load ptr, ptr %5, align 8, !tbaa !3
  %57 = getelementptr inbounds nuw %struct.BrotliEncoderStateStruct, ptr %56, i32 0, i32 0
  %58 = getelementptr inbounds nuw %struct.BrotliEncoderParams, ptr %57, i32 0, i32 5
  store i64 %55, ptr %58, align 8, !tbaa !43
  store i32 1, ptr %4, align 4
  br label %93

59:                                               ; preds = %13
  %60 = load i32, ptr %7, align 4, !tbaa !8
  %61 = icmp ne i32 %60, 0
  %62 = xor i1 %61, true
  %63 = xor i1 %62, true
  %64 = xor i1 %63, true
  %65 = xor i1 %64, true
  %66 = select i1 %65, i32 1, i32 0
  %67 = load ptr, ptr %5, align 8, !tbaa !3
  %68 = getelementptr inbounds nuw %struct.BrotliEncoderStateStruct, ptr %67, i32 0, i32 0
  %69 = getelementptr inbounds nuw %struct.BrotliEncoderParams, ptr %68, i32 0, i32 7
  store i32 %66, ptr %69, align 4, !tbaa !44
  store i32 1, ptr %4, align 4
  br label %93

70:                                               ; preds = %13
  %71 = load i32, ptr %7, align 4, !tbaa !8
  %72 = load ptr, ptr %5, align 8, !tbaa !3
  %73 = getelementptr inbounds nuw %struct.BrotliEncoderStateStruct, ptr %72, i32 0, i32 0
  %74 = getelementptr inbounds nuw %struct.BrotliEncoderParams, ptr %73, i32 0, i32 9
  %75 = getelementptr inbounds nuw %struct.BrotliDistanceParams, ptr %74, i32 0, i32 0
  store i32 %71, ptr %75, align 8, !tbaa !45
  store i32 1, ptr %4, align 4
  br label %93

76:                                               ; preds = %13
  %77 = load i32, ptr %7, align 4, !tbaa !8
  %78 = load ptr, ptr %5, align 8, !tbaa !3
  %79 = getelementptr inbounds nuw %struct.BrotliEncoderStateStruct, ptr %78, i32 0, i32 0
  %80 = getelementptr inbounds nuw %struct.BrotliEncoderParams, ptr %79, i32 0, i32 9
  %81 = getelementptr inbounds nuw %struct.BrotliDistanceParams, ptr %80, i32 0, i32 1
  store i32 %77, ptr %81, align 4, !tbaa !46
  store i32 1, ptr %4, align 4
  br label %93

82:                                               ; preds = %13
  %83 = load i32, ptr %7, align 4, !tbaa !8
  %84 = icmp ugt i32 %83, 1073741824
  br i1 %84, label %85, label %86

85:                                               ; preds = %82
  store i32 0, ptr %4, align 4
  br label %93

86:                                               ; preds = %82
  %87 = load i32, ptr %7, align 4, !tbaa !8
  %88 = zext i32 %87 to i64
  %89 = load ptr, ptr %5, align 8, !tbaa !3
  %90 = getelementptr inbounds nuw %struct.BrotliEncoderStateStruct, ptr %89, i32 0, i32 0
  %91 = getelementptr inbounds nuw %struct.BrotliEncoderParams, ptr %90, i32 0, i32 4
  store i64 %88, ptr %91, align 8, !tbaa !47
  store i32 1, ptr %4, align 4
  br label %93

92:                                               ; preds = %13
  store i32 0, ptr %4, align 4
  br label %93

93:                                               ; preds = %92, %86, %85, %76, %70, %59, %53, %42, %41, %30, %25, %20, %15, %12
  %94 = load i32, ptr %4, align 4
  ret i32 %94
}