; Function Attrs: mustprogress nofree norecurse nosync nounwind willreturn memory(argmem: readwrite) uwtable
define range(i32 0, 2) i32 @BrotliEncoderSetParameter(ptr noundef captures(none) %0, i32 noundef %1, i32 noundef %2) local_unnamed_addr #0 {
  %4 = getelementptr inbounds nuw i8, ptr %0, i64 6972
  %5 = load i32, ptr %4, align 4, !tbaa !3
  %.not = icmp eq i32 %5, 0
  br i1 %.not, label %6, label %32

6:                                                ; preds = %3
  switch i32 %1, label %32 [
    i32 0, label %7
    i32 1, label %8
    i32 2, label %10
    i32 3, label %12
    i32 4, label %14
    i32 5, label %17
    i32 6, label %20
    i32 7, label %23
    i32 8, label %25
    i32 9, label %27
  ]

7:                                                ; preds = %6
  store i32 %2, ptr %0, align 8, !tbaa !35
  br label %32

8:                                                ; preds = %6
  %9 = getelementptr inbounds nuw i8, ptr %0, i64 4
  store i32 %2, ptr %9, align 4, !tbaa !36
  br label %32

10:                                               ; preds = %6
  %11 = getelementptr inbounds nuw i8, ptr %0, i64 8
  store i32 %2, ptr %11, align 8, !tbaa !37
  br label %32

12:                                               ; preds = %6
  %13 = getelementptr inbounds nuw i8, ptr %0, i64 12
  store i32 %2, ptr %13, align 4, !tbaa !38
  br label %32

14:                                               ; preds = %6
  %or.cond = icmp ugt i32 %2, 1
  br i1 %or.cond, label %32, label %15

15:                                               ; preds = %14
  %16 = getelementptr inbounds nuw i8, ptr %0, i64 32
  store i32 %2, ptr %16, align 8, !tbaa !39
  br label %32

17:                                               ; preds = %6
  %18 = zext i32 %2 to i64
  %19 = getelementptr inbounds nuw i8, ptr %0, i64 24
  store i64 %18, ptr %19, align 8, !tbaa !40
  br label %32

20:                                               ; preds = %6
  %.not27 = icmp ne i32 %2, 0
  %21 = zext i1 %.not27 to i32
  %22 = getelementptr inbounds nuw i8, ptr %0, i64 36
  store i32 %21, ptr %22, align 4, !tbaa !41
  br label %32

23:                                               ; preds = %6
  %24 = getelementptr inbounds nuw i8, ptr %0, i64 56
  store i32 %2, ptr %24, align 8, !tbaa !42
  br label %32

25:                                               ; preds = %6
  %26 = getelementptr inbounds nuw i8, ptr %0, i64 60
  store i32 %2, ptr %26, align 4, !tbaa !43
  br label %32

27:                                               ; preds = %6
  %28 = icmp ugt i32 %2, 1073741824
  br i1 %28, label %32, label %29

29:                                               ; preds = %27
  %30 = zext nneg i32 %2 to i64
  %31 = getelementptr inbounds nuw i8, ptr %0, i64 16
  store i64 %30, ptr %31, align 8, !tbaa !44
  br label %32

32:                                               ; preds = %6, %27, %14, %3, %29, %25, %23, %20, %17, %15, %12, %10, %8, %7
  %.0 = phi i32 [ 1, %29 ], [ 1, %25 ], [ 1, %23 ], [ 1, %20 ], [ 1, %17 ], [ 1, %15 ], [ 1, %12 ], [ 1, %10 ], [ 1, %8 ], [ 1, %7 ], [ 0, %3 ], [ 0, %14 ], [ 0, %27 ], [ 0, %6 ]
  ret i32 %.0
}